; Function Attrs: mustprogress nounwind sspstrong willreturn uwtable
define hidden void @pm_integer_free(ptr noundef readonly captures(none) %0) local_unnamed_addr #6 {
  %2 = getelementptr inbounds nuw i8, ptr %0, i64 8
  %3 = load ptr, ptr %2, align 8, !tbaa !22
  %.not = icmp eq ptr %3, null
  br i1 %.not, label %5, label %4

4:                                                ; preds = %1
  tail call void @free(ptr noundef nonnull %3) #14
  br label %5

5:                                                ; preds = %4, %1
  ret void
}